target datalayout = "e-m:e-p270:32:32-p271:32:32-p272:64:64-i64:64-i128:128-f80:128-n8:16:32:64-S128"
target triple = "x86_64-unknown-linux-gnu"

%"class.smt::theory_dummy" = type { %"class.smt::theory.base", i8, ptr }
%"class.smt::theory.base" = type <{ ptr, i32, [4 x i8], ptr, ptr, %class.ptr_vector, %class.svector, i32, i8 }>
%class.ptr_vector = type { %class.vector }
%class.vector = type { ptr }
%class.svector = type { %class.vector.0 }
%class.vector.0 = type { ptr }

; Function Attrs: mustprogress uwtable
define hidden void @_ZN3smt12theory_dummyC2ERNS_7contextEiPKc(ptr noundef nonnull align 8 dereferenceable(64) %this, ptr noundef nonnull align 8 dereferenceable(11616) %ctx, i32 noundef %fid, ptr noundef %name) unnamed_addr #5 align 2 {
entry:
  %this.addr = alloca ptr, align 8
  %ctx.addr = alloca ptr, align 8
  %fid.addr = alloca i32, align 4
  %name.addr = alloca ptr, align 8
  store ptr %this, ptr %this.addr, align 8
  store ptr %ctx, ptr %ctx.addr, align 8
  store i32 %fid, ptr %fid.addr, align 4
  store ptr %name, ptr %name.addr, align 8
  %this1 = load ptr, ptr %this.addr, align 8
  %0 = load ptr, ptr %ctx.addr, align 8
  %1 = load i32, ptr %fid.addr, align 4
  call void @_ZN3smt6theoryC2ERNS_7contextEi(ptr noundef nonnull align 8 dereferenceable(53) %this1, ptr noundef nonnull align 8 dereferenceable(11616) %0, i32 noundef %1)
  store ptr getelementptr inbounds ({ [49 x ptr] }, ptr @_ZTVN3smt12theory_dummyE, i32 0, i32 0, i32 2), ptr %this1, align 8
  %m_theory_exprs = getelementptr inbounds %"class.smt::theory_dummy", ptr %this1, i32 0, i32 1
  store i8 0, ptr %m_theory_exprs, align 1
  %m_name = getelementptr inbounds %"class.smt::theory_dummy", ptr %this1, i32 0, i32 2
  %2 = load ptr, ptr %name.addr, align 8
  store ptr %2, ptr %m_name, align 8
  ret void
}