; Function Attrs: mustprogress uwtable
define hidden void @_ZN3smt12theory_dummyC2ERNS_7contextEiPKc(ptr noundef nonnull align 8 dereferenceable(64) %this, ptr noundef nonnull align 8 dereferenceable(11616) %ctx, i32 noundef %fid, ptr noundef %name) unnamed_addr #3 align 2 {
entry:
  tail call void @_ZN3smt6theoryC2ERNS_7contextEi(ptr noundef nonnull align 8 dereferenceable(53) %this, ptr noundef nonnull align 8 dereferenceable(11616) %ctx, i32 noundef %fid)
  store ptr getelementptr inbounds ({ [49 x ptr] }, ptr @_ZTVN3smt12theory_dummyE, i64 0, i32 0, i64 2), ptr %this, align 8
  %m_theory_exprs = getelementptr inbounds i8, ptr %this, i64 53
  store i8 0, ptr %m_theory_exprs, align 1
  %m_name = getelementptr inbounds i8, ptr %this, i64 56
  store ptr %name, ptr %m_name, align 8
  ret void
}